target datalayout = "e-m:e-p270:32:32-p271:32:32-p272:64:64-i64:64-i128:128-f80:128-n8:16:32:64-S128"
target triple = "x86_64-unknown-linux-gnu"

%"class.std::unique_ptr" = type { %"struct.std::__uniq_ptr_data" }
%"struct.std::__uniq_ptr_data" = type { %"class.std::__uniq_ptr_impl" }
%"class.std::__uniq_ptr_impl" = type { %"class.std::tuple" }
%"class.std::tuple" = type { %"struct.std::_Tuple_impl" }
%"struct.std::_Tuple_impl" = type { %"struct.std::_Head_base.1" }
%"struct.std::_Head_base.1" = type { ptr }
%"class.google::protobuf::io::FileOutputStream" = type { %"class.google::protobuf::io::CopyingOutputStreamAdaptor", %"class.google::protobuf::io::FileOutputStream::CopyingFileOutputStream" }
%"class.google::protobuf::io::CopyingOutputStreamAdaptor" = type { %"class.google::protobuf::io::ZeroCopyOutputStream", ptr, i8, i8, i64, %"class.std::unique_ptr", i32, i32 }
%"class.google::protobuf::io::ZeroCopyOutputStream" = type { ptr }
%"class.google::protobuf::io::FileOutputStream::CopyingFileOutputStream" = type <{ %"class.google::protobuf::io::CopyingOutputStream", i32, i8, i8, [2 x i8], i32, [4 x i8] }>
%"class.google::protobuf::io::CopyingOutputStream" = type { ptr }

@_ZN6google8protobuf2io16FileOutputStream23CopyingFileOutputStreamC1Ei = unnamed_addr alias void (ptr, i32), ptr @_ZN6google8protobuf2io16FileOutputStream23CopyingFileOutputStreamC2Ei

; Function Attrs: mustprogress uwtable
define void @_ZN6google8protobuf2io16FileOutputStreamC2Eii(ptr noundef nonnull align 8 dereferenceable(72) %this, i32 noundef %file_descriptor, i32 noundef %block_size) unnamed_addr #4 align 2 personality ptr @__gxx_personality_v0 {
entry:
  %this.addr = alloca ptr, align 8
  %file_descriptor.addr = alloca i32, align 4
  %block_size.addr = alloca i32, align 4
  %exn.slot = alloca ptr, align 8
  %ehselector.slot = alloca i32, align 4
  store ptr %this, ptr %this.addr, align 8
  store i32 %file_descriptor, ptr %file_descriptor.addr, align 4
  store i32 %block_size, ptr %block_size.addr, align 4
  %this1 = load ptr, ptr %this.addr, align 8
  store ptr getelementptr inbounds ({ [10 x ptr] }, ptr @_ZTVN6google8protobuf2io16FileOutputStreamE, i32 0, i32 0, i32 2), ptr %this1, align 8
  %copying_output_ = getelementptr inbounds %"class.google::protobuf::io::FileOutputStream", ptr %this1, i32 0, i32 1
  %0 = load i32, ptr %block_size.addr, align 4
  call void @_ZN6google8protobuf2io26CopyingOutputStreamAdaptorC2EPNS1_19CopyingOutputStreamEi(ptr noundef nonnull align 8 dereferenceable(48) %this1, ptr noundef %copying_output_, i32 noundef %0)
  store ptr getelementptr inbounds ({ [10 x ptr] }, ptr @_ZTVN6google8protobuf2io16FileOutputStreamE, i32 0, i32 0, i32 2), ptr %this1, align 8
  %copying_output_2 = getelementptr inbounds %"class.google::protobuf::io::FileOutputStream", ptr %this1, i32 0, i32 1
  %1 = load i32, ptr %file_descriptor.addr, align 4
  invoke void @_ZN6google8protobuf2io16FileOutputStream23CopyingFileOutputStreamC1Ei(ptr noundef nonnull align 8 dereferenceable(24) %copying_output_2, i32 noundef %1)
          to label %invoke.cont unwind label %lpad

invoke.cont:                                      ; preds = %entry
  ret void

lpad:                                             ; preds = %entry
  %2 = landingpad { ptr, i32 }
          cleanup
  %3 = extractvalue { ptr, i32 } %2, 0
  store ptr %3, ptr %exn.slot, align 8
  %4 = extractvalue { ptr, i32 } %2, 1
  store i32 %4, ptr %ehselector.slot, align 4
  call void @_ZN6google8protobuf2io26CopyingOutputStreamAdaptorD2Ev(ptr noundef nonnull align 8 dereferenceable(48) %this1) #3
  br label %eh.resume

eh.resume:                                        ; preds = %lpad
  %exn = load ptr, ptr %exn.slot, align 8
  %sel = load i32, ptr %ehselector.slot, align 4
  %lpad.val = insertvalue { ptr, i32 } poison, ptr %exn, 0
  %lpad.val3 = insertvalue { ptr, i32 } %lpad.val, i32 %sel, 1
  resume { ptr, i32 } %lpad.val3
}