; Function Attrs: mustprogress uwtable
define void @_ZN6google8protobuf2io16FileOutputStreamC2Eii(ptr noundef nonnull align 8 dereferenceable(72) %this, i32 noundef %file_descriptor, i32 noundef %block_size) unnamed_addr #3 align 2 personality ptr @__gxx_personality_v0 {
entry:
  store ptr getelementptr inbounds ({ [10 x ptr] }, ptr @_ZTVN6google8protobuf2io16FileOutputStreamE, i64 0, i32 0, i64 2), ptr %this, align 8
  %copying_output_ = getelementptr inbounds i8, ptr %this, i64 48
  tail call void @_ZN6google8protobuf2io26CopyingOutputStreamAdaptorC2EPNS1_19CopyingOutputStreamEi(ptr noundef nonnull align 8 dereferenceable(48) %this, ptr noundef nonnull %copying_output_, i32 noundef %block_size)
  store ptr getelementptr inbounds ({ [10 x ptr] }, ptr @_ZTVN6google8protobuf2io16FileOutputStreamE, i64 0, i32 0, i64 2), ptr %this, align 8
  invoke void @_ZN6google8protobuf2io16FileOutputStream23CopyingFileOutputStreamC1Ei(ptr noundef nonnull align 8 dereferenceable(24) %copying_output_, i32 noundef %file_descriptor)
          to label %invoke.cont unwind label %lpad

invoke.cont:                                      ; preds = %entry
  ret void

lpad:                                             ; preds = %entry
  %0 = landingpad { ptr, i32 }
          cleanup
  tail call void @_ZN6google8protobuf2io26CopyingOutputStreamAdaptorD2Ev(ptr noundef nonnull align 8 dereferenceable(48) %this) #16
  resume { ptr, i32 } %0
}